target datalayout = "e-m:e-p270:32:32-p271:32:32-p272:64:64-i64:64-i128:128-f80:128-n8:16:32:64-S128"
target triple = "x86_64-unknown-linux-gnu"

%struct.ecc_set_type = type { i32, i32, ptr, ptr, ptr, ptr, ptr, ptr, ptr, ptr, i32, i32, i32 }
%struct.ecc_key = type { i32, i32, i32, i32, ptr, ptr, %struct.ecc_point, [1 x %struct.sp_int], ptr }
%struct.ecc_point = type { [1 x %struct.sp_int], [1 x %struct.sp_int], [1 x %struct.sp_int] }
%struct.sp_int = type { i32, i32, [129 x i64] }

; Function Attrs: nounwind uwtable
define i32 @wc_ecc_size(ptr noundef %key) #0 {
entry:
  %retval = alloca i32, align 4
  %key.addr = alloca ptr, align 8
  store ptr %key, ptr %key.addr, align 8
  %0 = load ptr, ptr %key.addr, align 8
  %cmp = icmp eq ptr %0, null
  br i1 %cmp, label %if.then, label %lor.lhs.false

lor.lhs.false:                                    ; preds = %entry
  %1 = load ptr, ptr %key.addr, align 8
  %dp = getelementptr inbounds %struct.ecc_key, ptr %1, i32 0, i32 4
  %2 = load ptr, ptr %dp, align 8
  %cmp1 = icmp eq ptr %2, null
  br i1 %cmp1, label %if.then, label %if.end

if.then:                                          ; preds = %lor.lhs.false, %entry
  store i32 0, ptr %retval, align 4
  br label %return

if.end:                                           ; preds = %lor.lhs.false
  %3 = load ptr, ptr %key.addr, align 8
  %dp2 = getelementptr inbounds %struct.ecc_key, ptr %3, i32 0, i32 4
  %4 = load ptr, ptr %dp2, align 8
  %size = getelementptr inbounds %struct.ecc_set_type, ptr %4, i32 0, i32 0
  %5 = load i32, ptr %size, align 8
  store i32 %5, ptr %retval, align 4
  br label %return

return:                                           ; preds = %if.end, %if.then
  %6 = load i32, ptr %retval, align 4
  ret i32 %6
}