; Function Attrs: mustprogress nofree norecurse nosync nounwind willreturn memory(read, inaccessiblemem: none) uwtable
define i32 @wc_ecc_size(ptr noundef readonly %key) local_unnamed_addr #13 {
entry:
  %cmp = icmp eq ptr %key, null
  br i1 %cmp, label %return, label %lor.lhs.false

lor.lhs.false:                                    ; preds = %entry
  %dp = getelementptr inbounds nuw i8, ptr %key, i64 16
  %0 = load ptr, ptr %dp, align 8
  %cmp1 = icmp eq ptr %0, null
  br i1 %cmp1, label %return, label %if.end

if.end:                                           ; preds = %lor.lhs.false
  %1 = load i32, ptr %0, align 8
  br label %return

return:                                           ; preds = %entry, %lor.lhs.false, %if.end
  %retval.0 = phi i32 [ %1, %if.end ], [ 0, %lor.lhs.false ], [ 0, %entry ]
  ret i32 %retval.0
}